; Function Attrs: mustprogress uwtable
define noundef i32 @_ZN5Ipopt11TNLPReducer33get_number_of_nonlinear_variablesEv(ptr nocapture noundef nonnull readonly align 8 dereferenceable(136) %0) unnamed_addr #0 align 2 {
  %2 = getelementptr inbounds i8, ptr %0, i64 16
  %3 = load ptr, ptr %2, align 8
  %4 = load ptr, ptr %3, align 8
  %5 = getelementptr inbounds i8, ptr %4, i64 120
  %6 = load ptr, ptr %5, align 8
  %7 = tail call noundef i32 %6(ptr noundef nonnull align 8 dereferenceable(12) %3)
  ret i32 %7
}